; Function Attrs: nounwind uwtable
define internal void @dom_object_namespace_node_free_storage(ptr noundef %0) #1 {
  %2 = alloca %struct._zval_struct, align 8
  %3 = getelementptr inbounds i8, ptr %0, i64 -32
  %4 = load ptr, ptr %3, align 8
  %.not = icmp eq ptr %4, null
  br i1 %.not, label %8, label %5

5:                                                ; preds = %1
  %6 = getelementptr inbounds i8, ptr %4, i64 24
  store ptr %6, ptr %2, align 8
  %7 = getelementptr inbounds i8, ptr %2, i64 8
  store i32 776, ptr %7, align 8
  call void @zval_ptr_dtor(ptr noundef nonnull %2) #16
  br label %8

8:                                                ; preds = %5, %1
  %9 = getelementptr inbounds i8, ptr %0, i64 -24
  call void @zend_object_std_dtor(ptr noundef nonnull %0) #16
  %10 = load ptr, ptr %9, align 8
  %.not.i = icmp eq ptr %10, null
  br i1 %.not.i, label %dom_objects_free_storage.exit, label %11

11:                                               ; preds = %8
  %12 = load ptr, ptr %10, align 8
  %.not12.i = icmp eq ptr %12, null
  br i1 %.not12.i, label %dom_objects_free_storage.exit, label %13

13:                                               ; preds = %11
  %14 = getelementptr inbounds i8, ptr %12, i64 8
  %15 = load i32, ptr %14, align 8
  switch i32 %15, label %16 [
    i32 9, label %17
    i32 13, label %17
  ]

16:                                               ; preds = %13
  call void @php_libxml_node_decrement_resource(ptr noundef nonnull %9) #16
  br label %20

17:                                               ; preds = %13, %13
  %18 = call i32 @php_libxml_decrement_node_ptr(ptr noundef nonnull %9) #16
  %19 = call i32 @php_libxml_decrement_doc_ref(ptr noundef nonnull %9) #16
  br label %20

20:                                               ; preds = %17, %16
  store ptr null, ptr %9, align 8
  br label %dom_objects_free_storage.exit

dom_objects_free_storage.exit:                    ; preds = %8, %11, %20
  ret void
}